; Function Attrs: nounwind uwtable
define void @Mpm_ComputeCnfSizeAll(ptr noundef readonly captures(none) %0) local_unnamed_addr #5 {
  %2 = tail call noalias dereferenceable_or_null(16) ptr @malloc(i64 noundef 16) #27
  %3 = getelementptr inbounds nuw i8, ptr %2, i64 4
  store i32 0, ptr %3, align 4, !tbaa !18
  store i32 65536, ptr %2, align 8, !tbaa !21
  %4 = tail call noalias dereferenceable_or_null(262144) ptr @malloc(i64 noundef 262144) #27
  %5 = getelementptr inbounds nuw i8, ptr %2, i64 8
  store ptr %4, ptr %5, align 8, !tbaa !22
  %6 = tail call noalias dereferenceable_or_null(16) ptr @malloc(i64 noundef 16) #27
  %7 = getelementptr inbounds nuw i8, ptr %6, i64 4
  store i32 0, ptr %7, align 4, !tbaa !52
  store i32 1000, ptr %6, align 8, !tbaa !55
  %8 = tail call noalias dereferenceable_or_null(1000) ptr @malloc(i64 noundef 1000) #27
  %9 = getelementptr inbounds nuw i8, ptr %6, i64 8
  store ptr %8, ptr %9, align 8, !tbaa !56
  %10 = getelementptr inbounds nuw i8, ptr %0, i64 48
  %11 = load ptr, ptr %10, align 8, !tbaa !39
  %12 = getelementptr i8, ptr %11, i64 4
  %.val1012 = load i32, ptr %12, align 4, !tbaa !29
  %13 = icmp sgt i32 %.val1012, 0
  br i1 %13, label %.lr.ph, label %.critedge

.lr.ph:                                           ; preds = %1
  %14 = getelementptr inbounds nuw i8, ptr %0, i64 56
  br label %15

15:                                               ; preds = %.lr.ph, %Vec_IntPush.exit
  %indvars.iv = phi i64 [ 0, %.lr.ph ], [ %indvars.iv.next, %Vec_IntPush.exit ]
  %16 = phi ptr [ %11, %.lr.ph ], [ %53, %Vec_IntPush.exit ]
  %17 = getelementptr i8, ptr %16, i64 8
  %.val = load ptr, ptr %17, align 8, !tbaa !33
  %18 = getelementptr inbounds nuw i64, ptr %.val, i64 %indvars.iv
  %19 = load i64, ptr %18, align 8, !tbaa !46
  %20 = load ptr, ptr %14, align 8, !tbaa !40
  %21 = tail call i32 @Mpm_ComputeCnfSizeOne(i64 noundef %19, i32 noundef 6, ptr noundef nonnull %2, ptr noundef nonnull %6)
  %22 = getelementptr inbounds nuw i8, ptr %20, i64 4
  %23 = load i32, ptr %22, align 4, !tbaa !18
  %24 = load i32, ptr %20, align 8, !tbaa !21
  %25 = icmp eq i32 %23, %24
  br i1 %25, label %26, label %.Vec_IntGrow.exit10_crit_edge.i

.Vec_IntGrow.exit10_crit_edge.i:                  ; preds = %15
  %.phi.trans.insert.i = getelementptr inbounds nuw i8, ptr %20, i64 8
  %.pre.i = load ptr, ptr %.phi.trans.insert.i, align 8, !tbaa !22
  br label %Vec_IntPush.exit

26:                                               ; preds = %15
  %27 = icmp slt i32 %23, 16
  br i1 %27, label %28, label %36

28:                                               ; preds = %26
  %29 = getelementptr inbounds nuw i8, ptr %20, i64 8
  %30 = load ptr, ptr %29, align 8, !tbaa !22
  %.not9.i.i = icmp eq ptr %30, null
  br i1 %.not9.i.i, label %33, label %31

31:                                               ; preds = %28
  %32 = tail call dereferenceable_or_null(64) ptr @realloc(ptr noundef nonnull %30, i64 noundef 64) #29
  br label %Vec_IntGrow.exit.i

33:                                               ; preds = %28
  %34 = tail call noalias dereferenceable_or_null(64) ptr @malloc(i64 noundef 64) #27
  br label %Vec_IntGrow.exit.i

Vec_IntGrow.exit.i:                               ; preds = %33, %31
  %35 = phi ptr [ %32, %31 ], [ %34, %33 ]
  store ptr %35, ptr %29, align 8, !tbaa !22
  store i32 16, ptr %20, align 8, !tbaa !21
  br label %Vec_IntPush.exit

36:                                               ; preds = %26
  %37 = shl nuw nsw i32 %23, 1
  %38 = getelementptr inbounds nuw i8, ptr %20, i64 8
  %39 = load ptr, ptr %38, align 8, !tbaa !22
  %.not9.i9.i = icmp eq ptr %39, null
  %40 = zext nneg i32 %37 to i64
  %41 = shl nuw nsw i64 %40, 2
  br i1 %.not9.i9.i, label %44, label %42

42:                                               ; preds = %36
  %43 = tail call ptr @realloc(ptr noundef nonnull %39, i64 noundef %41) #29
  br label %46

44:                                               ; preds = %36
  %45 = tail call noalias ptr @malloc(i64 noundef %41) #27
  br label %46

46:                                               ; preds = %44, %42
  %47 = phi ptr [ %43, %42 ], [ %45, %44 ]
  store ptr %47, ptr %38, align 8, !tbaa !22
  store i32 %37, ptr %20, align 8, !tbaa !21
  br label %Vec_IntPush.exit

Vec_IntPush.exit:                                 ; preds = %.Vec_IntGrow.exit10_crit_edge.i, %Vec_IntGrow.exit.i, %46
  %48 = phi ptr [ %.pre.i, %.Vec_IntGrow.exit10_crit_edge.i ], [ %47, %46 ], [ %35, %Vec_IntGrow.exit.i ]
  %49 = load i32, ptr %22, align 4, !tbaa !18
  %50 = add nsw i32 %49, 1
  store i32 %50, ptr %22, align 4, !tbaa !18
  %51 = sext i32 %49 to i64
  %52 = getelementptr inbounds i32, ptr %48, i64 %51
  store i32 %21, ptr %52, align 4, !tbaa !37
  %indvars.iv.next = add nuw nsw i64 %indvars.iv, 1
  %53 = load ptr, ptr %10, align 8, !tbaa !39
  %54 = getelementptr i8, ptr %53, i64 4
  %.val10 = load i32, ptr %54, align 4, !tbaa !29
  %55 = sext i32 %.val10 to i64
  %56 = icmp slt i64 %indvars.iv.next, %55
  br i1 %56, label %15, label %.critedge.loopexit, !llvm.loop !60

.critedge.loopexit:                               ; preds = %Vec_IntPush.exit
  %.pre = load ptr, ptr %5, align 8, !tbaa !22
  br label %.critedge

.critedge:                                        ; preds = %.critedge.loopexit, %1
  %57 = phi ptr [ %.pre, %.critedge.loopexit ], [ %4, %1 ]
  %.not.i = icmp eq ptr %57, null
  br i1 %.not.i, label %Vec_IntFree.exit, label %58

58:                                               ; preds = %.critedge
  tail call void @free(ptr noundef nonnull %57) #28
  br label %Vec_IntFree.exit

Vec_IntFree.exit:                                 ; preds = %.critedge, %58
  tail call void @free(ptr noundef nonnull %2) #28
  %59 = load ptr, ptr %9, align 8, !tbaa !56
  %.not.i11 = icmp eq ptr %59, null
  br i1 %.not.i11, label %Vec_StrFree.exit, label %60

60:                                               ; preds = %Vec_IntFree.exit
  tail call void @free(ptr noundef nonnull %59) #28
  br label %Vec_StrFree.exit

Vec_StrFree.exit:                                 ; preds = %Vec_IntFree.exit, %60
  tail call void @free(ptr noundef nonnull %6) #28
  ret void
}